; Function Attrs: mustprogress uwtable
define void @_ZN8proxygen11HTTPSession21notifyPendingShutdownEv(ptr noundef nonnull align 8 dereferenceable(2504) %this) unnamed_addr #3 align 2 personality ptr @__gxx_personality_v0 {
entry:
  %ref.tmp5 = alloca %"class.google::LogMessage", align 8
  %0 = load ptr, ptr @_ZZN8proxygen11HTTPSession21notifyPendingShutdownEvE8vlocal__, align 8
  %cmp = icmp eq ptr %0, null
  br i1 %cmp, label %cond.true, label %cond.end

cond.true:                                        ; preds = %entry
  %call = tail call noundef zeroext i1 @_ZN6google11InitVLOG3__EPNS_8SiteFlagEPiPKci(ptr noundef nonnull @_ZZN8proxygen11HTTPSession21notifyPendingShutdownEvE8vlocal__, ptr noundef nonnull @_ZN3fLI7FLAGS_vE, ptr noundef nonnull @.str, i32 noundef 4)
  br i1 %call, label %cond.false4, label %cleanup.done

cond.end:                                         ; preds = %entry
  %1 = load i32, ptr %0, align 4
  %cmp2 = icmp sgt i32 %1, 3
  br i1 %cmp2, label %cond.false4, label %cleanup.done

cond.false4:                                      ; preds = %cond.true, %cond.end
  call void @_ZN6google10LogMessageC1EPKci(ptr noundef nonnull align 8 dereferenceable(96) %ref.tmp5, ptr noundef nonnull @.str, i32 noundef 402)
  %call6 = invoke noundef nonnull align 8 dereferenceable(8) ptr @_ZN6google10LogMessage6streamEv(ptr noundef nonnull align 8 dereferenceable(96) %ref.tmp5)
          to label %invoke.cont unwind label %lpad

invoke.cont:                                      ; preds = %cond.false4
  %call8 = invoke noundef nonnull align 8 dereferenceable(8) ptr @_ZN6wanglelsERSoRKNS_17ManagedConnectionE(ptr noundef nonnull align 8 dereferenceable(8) %call6, ptr noundef nonnull align 8 dereferenceable(208) %this)
          to label %invoke.cont7 unwind label %lpad

invoke.cont7:                                     ; preds = %invoke.cont
  %call10 = invoke noundef nonnull align 8 dereferenceable(8) ptr @_ZStlsISt11char_traitsIcEERSt13basic_ostreamIcT_ES5_PKc(ptr noundef nonnull align 8 dereferenceable(8) %call8, ptr noundef nonnull @.str.20)
          to label %cleanup.action unwind label %lpad

cleanup.action:                                   ; preds = %invoke.cont7
  call void @_ZN6google10LogMessageD1Ev(ptr noundef nonnull align 8 dereferenceable(96) %ref.tmp5) #39
  br label %cleanup.done

cleanup.done:                                     ; preds = %cond.true, %cond.end, %cleanup.action
  %vtable = load ptr, ptr %this, align 8
  %vfn = getelementptr inbounds i8, ptr %vtable, i64 432
  %2 = load ptr, ptr %vfn, align 8
  call void %2(ptr noundef nonnull align 8 dereferenceable(2504) %this)
  ret void

lpad:                                             ; preds = %invoke.cont7, %invoke.cont, %cond.false4
  %3 = landingpad { ptr, i32 }
          cleanup
  call void @_ZN6google10LogMessageD1Ev(ptr noundef nonnull align 8 dereferenceable(96) %ref.tmp5) #39
  resume { ptr, i32 } %3
}